; Function Attrs: mustprogress uwtable
define dso_local void @_Z26fvec_inner_products_ny_refPfPKfS1_mm(ptr noundef writeonly captures(none) %0, ptr noundef %1, ptr noundef %2, i64 noundef %3, i64 noundef %4) local_unnamed_addr #2 {
  %.not = icmp eq i64 %4, 0
  br i1 %.not, label %._crit_edge, label %.lr.ph

._crit_edge:                                      ; preds = %.lr.ph, %5
  ret void

.lr.ph:                                           ; preds = %5, %.lr.ph
  %.011 = phi i64 [ %9, %.lr.ph ], [ 0, %5 ]
  %.0910 = phi ptr [ %8, %.lr.ph ], [ %2, %5 ]
  %6 = tail call noundef float @_ZN5faiss18fvec_inner_productEPKfS1_m(ptr noundef %1, ptr noundef %.0910, i64 noundef %3)
  %7 = getelementptr inbounds nuw float, ptr %0, i64 %.011
  store float %6, ptr %7, align 4, !tbaa !15
  %8 = getelementptr inbounds nuw float, ptr %.0910, i64 %3
  %9 = add nuw i64 %.011, 1
  %exitcond.not = icmp eq i64 %9, %4
  br i1 %exitcond.not, label %._crit_edge, label %.lr.ph, !llvm.loop !61
}